target datalayout = "e-m:e-p270:32:32-p271:32:32-p272:64:64-i64:64-i128:128-f80:128-n8:16:32:64-S128"
target triple = "x86_64-unknown-linux-gnu"

%"struct.OpenImageIO_v2_6_0::TypeDesc" = type { i8, i8, i8, i8, i32 }
%"class.OpenImageIO_v2_6_0::JpgInput" = type { %"class.OpenImageIO_v2_6_0::ImageInput", %"class.std::__cxx11::basic_string", i32, i8, i8, i8, i8, %struct.jpeg_decompress_struct, %"struct.OpenImageIO_v2_6_0::JpgInput::my_error_mgr", ptr, %"class.std::vector.17", %"class.std::unique_ptr.22" }
%"class.OpenImageIO_v2_6_0::ImageInput" = type { ptr, %"class.OpenImageIO_v2_6_0::ImageSpec", %"class.std::unique_ptr" }
%"class.OpenImageIO_v2_6_0::ImageSpec" = type { i32, i32, i32, i32, i32, i32, i32, i32, i32, i32, i32, i32, i32, i32, i32, i32, %"struct.OpenImageIO_v2_6_0::TypeDesc", %"class.std::vector", %"class.std::vector.0", i32, i32, i8, %"class.OpenImageIO_v2_6_0::ParamValueList" }
%"class.std::vector" = type { %"struct.std::_Vector_base" }
%"struct.std::_Vector_base" = type { %"struct.std::_Vector_base<OpenImageIO_v2_6_0::TypeDesc, std::allocator<OpenImageIO_v2_6_0::TypeDesc>>::_Vector_impl" }
%"struct.std::_Vector_base<OpenImageIO_v2_6_0::TypeDesc, std::allocator<OpenImageIO_v2_6_0::TypeDesc>>::_Vector_impl" = type { %"struct.std::_Vector_base<OpenImageIO_v2_6_0::TypeDesc, std::allocator<OpenImageIO_v2_6_0::TypeDesc>>::_Vector_impl_data" }
%"struct.std::_Vector_base<OpenImageIO_v2_6_0::TypeDesc, std::allocator<OpenImageIO_v2_6_0::TypeDesc>>::_Vector_impl_data" = type { ptr, ptr, ptr }
%"class.std::vector.0" = type { %"struct.std::_Vector_base.1" }
%"struct.std::_Vector_base.1" = type { %"struct.std::_Vector_base<std::__cxx11::basic_string<char>, std::allocator<std::__cxx11::basic_string<char>>>::_Vector_impl" }
%"struct.std::_Vector_base<std::__cxx11::basic_string<char>, std::allocator<std::__cxx11::basic_string<char>>>::_Vector_impl" = type { %"struct.std::_Vector_base<std::__cxx11::basic_string<char>, std::allocator<std::__cxx11::basic_string<char>>>::_Vector_impl_data" }
%"struct.std::_Vector_base<std::__cxx11::basic_string<char>, std::allocator<std::__cxx11::basic_string<char>>>::_Vector_impl_data" = type { ptr, ptr, ptr }
%"class.OpenImageIO_v2_6_0::ParamValueList" = type { %"class.std::vector.5" }
%"class.std::vector.5" = type { %"struct.std::_Vector_base.6" }
%"struct.std::_Vector_base.6" = type { %"struct.std::_Vector_base<OpenImageIO_v2_6_0::ParamValue, std::allocator<OpenImageIO_v2_6_0::ParamValue>>::_Vector_impl" }
%"struct.std::_Vector_base<OpenImageIO_v2_6_0::ParamValue, std::allocator<OpenImageIO_v2_6_0::ParamValue>>::_Vector_impl" = type { %"struct.std::_Vector_base<OpenImageIO_v2_6_0::ParamValue, std::allocator<OpenImageIO_v2_6_0::ParamValue>>::_Vector_impl_data" }
%"struct.std::_Vector_base<OpenImageIO_v2_6_0::ParamValue, std::allocator<OpenImageIO_v2_6_0::ParamValue>>::_Vector_impl_data" = type { ptr, ptr, ptr }
%"class.std::unique_ptr" = type { %"struct.std::__uniq_ptr_data" }
%"struct.std::__uniq_ptr_data" = type { %"class.std::__uniq_ptr_impl" }
%"class.std::__uniq_ptr_impl" = type { %"class.std::tuple" }
%"class.std::tuple" = type { %"struct.std::_Tuple_impl" }
%"struct.std::_Tuple_impl" = type { %"struct.std::_Tuple_impl.10", %"struct.std::_Head_base.11" }
%"struct.std::_Tuple_impl.10" = type { %"struct.std::_Head_base" }
%"struct.std::_Head_base" = type { ptr }
%"struct.std::_Head_base.11" = type { ptr }
%"class.std::__cxx11::basic_string" = type { %"struct.std::__cxx11::basic_string<char>::_Alloc_hider", i64, %union.anon.15 }
%"struct.std::__cxx11::basic_string<char>::_Alloc_hider" = type { ptr }
%union.anon.15 = type { i64, [8 x i8] }
%struct.jpeg_decompress_struct = type { ptr, ptr, ptr, ptr, i32, i32, ptr, i32, i32, i32, i32, i32, i32, i32, double, i32, i32, i32, i32, i32, i32, i32, i32, i32, i32, i32, i32, i32, i32, i32, i32, i32, i32, ptr, i32, i32, i32, i32, i32, ptr, [4 x ptr], [4 x ptr], [4 x ptr], i32, ptr, i32, i32, i32, [16 x i8], [16 x i8], [16 x i8], i32, i32, i8, i8, i8, i16, i16, i32, i8, i32, ptr, i32, i32, i32, i32, i32, ptr, i32, [4 x ptr], i32, i32, i32, [10 x i32], i32, i32, i32, i32, i32, ptr, i32, i32, ptr, ptr, ptr, ptr, ptr, ptr, ptr, ptr, ptr, ptr, ptr }
%"struct.OpenImageIO_v2_6_0::JpgInput::my_error_mgr" = type { %struct.jpeg_error_mgr, [1 x %struct.__jmp_buf_tag], ptr }
%struct.jpeg_error_mgr = type { ptr, ptr, ptr, ptr, ptr, i32, %union.anon.16, i32, i64, ptr, i32, ptr, i32, i32 }
%union.anon.16 = type { [8 x i32], [48 x i8] }
%struct.__jmp_buf_tag = type { [8 x i64], i32, %struct.__sigset_t }
%struct.__sigset_t = type { [16 x i64] }
%"class.std::vector.17" = type { %"struct.std::_Vector_base.18" }
%"struct.std::_Vector_base.18" = type { %"struct.std::_Vector_base<unsigned char, std::allocator<unsigned char>>::_Vector_impl" }
%"struct.std::_Vector_base<unsigned char, std::allocator<unsigned char>>::_Vector_impl" = type { %"struct.std::_Vector_base<unsigned char, std::allocator<unsigned char>>::_Vector_impl_data" }
%"struct.std::_Vector_base<unsigned char, std::allocator<unsigned char>>::_Vector_impl_data" = type { ptr, ptr, ptr }
%"class.std::unique_ptr.22" = type { %"struct.std::__uniq_ptr_data.23" }
%"struct.std::__uniq_ptr_data.23" = type { %"class.std::__uniq_ptr_impl.24" }
%"class.std::__uniq_ptr_impl.24" = type { %"class.std::tuple.25" }
%"class.std::tuple.25" = type { %"struct.std::_Tuple_impl.26" }
%"struct.std::_Tuple_impl.26" = type { %"struct.std::_Head_base.29" }
%"struct.std::_Head_base.29" = type { ptr }

@.str.7 = private unnamed_addr constant [22 x i8] c"JPEG error: %s (\22%s\22)\00", align 1

; Function Attrs: mustprogress nounwind uwtable
define linkonce_odr hidden noundef nonnull align 8 dereferenceable(32) ptr @_ZNK18OpenImageIO_v2_6_08JpgInput8filenameB5cxx11Ev(ptr noundef nonnull align 8 dereferenceable(1296) %this) #4 comdat align 2 {
entry:
  %this.addr = alloca ptr, align 8
  store ptr %this, ptr %this.addr, align 8
  %this1 = load ptr, ptr %this.addr, align 8
  %m_filename = getelementptr inbounds %"class.OpenImageIO_v2_6_0::JpgInput", ptr %this1, i32 0, i32 1
  ret ptr %m_filename
}

; Function Attrs: mustprogress uwtable
define hidden void @_ZN18OpenImageIO_v2_6_08JpgInput9jpegerrorEPNS0_12my_error_mgrEb(ptr noundef nonnull align 8 dereferenceable(1296) %this, ptr noundef %0, i1 noundef zeroext %fatal) #6 align 2 {
entry:
  %this.addr = alloca ptr, align 8
  %.addr = alloca ptr, align 8
  %fatal.addr = alloca i8, align 1
  %errbuf = alloca [200 x i8], align 16
  store ptr %this, ptr %this.addr, align 8
  store ptr %0, ptr %.addr, align 8
  %frombool = zext i1 %fatal to i8
  store i8 %frombool, ptr %fatal.addr, align 1
  %this1 = load ptr, ptr %this.addr, align 8
  %m_cinfo = getelementptr inbounds %"class.OpenImageIO_v2_6_0::JpgInput", ptr %this1, i32 0, i32 7
  %err = getelementptr inbounds %struct.jpeg_decompress_struct, ptr %m_cinfo, i32 0, i32 0
  %1 = load ptr, ptr %err, align 8
  %format_message = getelementptr inbounds %struct.jpeg_error_mgr, ptr %1, i32 0, i32 3
  %2 = load ptr, ptr %format_message, align 8
  %m_cinfo2 = getelementptr inbounds %"class.OpenImageIO_v2_6_0::JpgInput", ptr %this1, i32 0, i32 7
  %arraydecay = getelementptr inbounds [200 x i8], ptr %errbuf, i64 0, i64 0
  call void %2(ptr noundef %m_cinfo2, ptr noundef %arraydecay)
  %call = call noundef nonnull align 8 dereferenceable(32) ptr @_ZNK18OpenImageIO_v2_6_08JpgInput8filenameB5cxx11Ev(ptr noundef nonnull align 8 dereferenceable(1296) %this1)
  call void @_ZNK18OpenImageIO_v2_6_010ImageInput6errorfIJA200_cNSt7__cxx1112basic_stringIcSt11char_traitsIcESaIcEEEEEEvPKcDpRKT_(ptr noundef nonnull align 8 dereferenceable(184) %this1, ptr noundef @.str.7, ptr noundef nonnull align 1 dereferenceable(200) %errbuf, ptr noundef nonnull align 8 dereferenceable(32) %call)
  %3 = load i8, ptr %fatal.addr, align 1
  %tobool = trunc i8 %3 to i1
  br i1 %tobool, label %if.then, label %if.end

if.then:                                          ; preds = %entry
  %m_fatalerr = getelementptr inbounds %"class.OpenImageIO_v2_6_0::JpgInput", ptr %this1, i32 0, i32 5
  store i8 1, ptr %m_fatalerr, align 2
  %call3 = call noundef zeroext i1 @_ZN18OpenImageIO_v2_6_08JpgInput5closeEv(ptr noundef nonnull align 8 dereferenceable(1296) %this1)
  %m_fatalerr4 = getelementptr inbounds %"class.OpenImageIO_v2_6_0::JpgInput", ptr %this1, i32 0, i32 5
  store i8 1, ptr %m_fatalerr4, align 2
  br label %if.end

if.end:                                           ; preds = %if.then, %entry
  ret void
}