; Function Attrs: mustprogress uwtable
define hidden void @_ZN18OpenImageIO_v2_6_08JpgInput9jpegerrorEPNS0_12my_error_mgrEb(ptr noundef nonnull align 8 dereferenceable(1296) %this, ptr nocapture readnone %0, i1 noundef zeroext %fatal) local_unnamed_addr #6 align 2 {
entry:
  %errbuf = alloca [200 x i8], align 16
  %m_cinfo = getelementptr inbounds i8, ptr %this, i64 224
  %1 = load ptr, ptr %m_cinfo, align 8
  %format_message = getelementptr inbounds i8, ptr %1, i64 24
  %2 = load ptr, ptr %format_message, align 8
  call void %2(ptr noundef nonnull %m_cinfo, ptr noundef nonnull %errbuf)
  %m_filename.i = getelementptr inbounds i8, ptr %this, i64 184
  call void @_ZNK18OpenImageIO_v2_6_010ImageInput6errorfIJA200_cNSt7__cxx1112basic_stringIcSt11char_traitsIcESaIcEEEEEEvPKcDpRKT_(ptr noundef nonnull align 8 dereferenceable(184) %this, ptr noundef nonnull @.str.7, ptr noundef nonnull align 1 dereferenceable(200) %errbuf, ptr noundef nonnull align 8 dereferenceable(32) %m_filename.i)
  br i1 %fatal, label %if.then, label %if.end

if.then:                                          ; preds = %entry
  %m_fatalerr = getelementptr inbounds i8, ptr %this, i64 222
  store i8 1, ptr %m_fatalerr, align 2
  %call3 = call noundef zeroext i1 @_ZN18OpenImageIO_v2_6_08JpgInput5closeEv(ptr noundef nonnull align 8 dereferenceable(1296) %this)
  store i8 1, ptr %m_fatalerr, align 2
  br label %if.end

if.end:                                           ; preds = %if.then, %entry
  ret void
}